#include <math.h>
#include <stdio.h>
#include <stdlib.h>
#include <string.h>

int main ()
{
	int n,i,b=0,c=0,l,j,k;
	char a[100001];
	scanf ("%d",&n);
	for(i=0;i<n;i++)
	{
		getchar();
		scanf("%s",a);
		l=strlen(a);
		for(j=0;j<l;j++)
		{
			for(k=0;k<l;k++)
			{
				if (a[j]==a[k])
					b=b+1;
			}
			if(b==1)
			{
				printf("%c\n",a[j]);
				b=0;
				break;
			}
			else 
			{
				c=c+1;
			}
			b=0;
		}
		if(c==l)
			printf("no\n");
		c=0;
	}
	return 0;
}
